; Function Attrs: mustprogress nounwind uwtable
define internal fastcc void @_ZNSt8_Rb_treeIPN12_GLOBAL__N_119cmDependInformationES2_St9_IdentityIS2_ESt4lessIS2_ESaIS2_EE8_M_eraseEPSt13_Rb_tree_nodeIS2_E(ptr noundef %0) unnamed_addr #5 align 2 personality ptr @__gxx_personality_v0 {
  %.not1 = icmp eq ptr %0, null
  br i1 %.not1, label %._crit_edge, label %.lr.ph

.lr.ph:                                           ; preds = %1, %.lr.ph
  %.02 = phi ptr [ %.0.val6, %.lr.ph ], [ %0, %1 ]
  %2 = getelementptr i8, ptr %.02, i64 24
  %.0.val = load ptr, ptr %2, align 8
  tail call fastcc void @_ZNSt8_Rb_treeIPN12_GLOBAL__N_119cmDependInformationES2_St9_IdentityIS2_ESt4lessIS2_ESaIS2_EE8_M_eraseEPSt13_Rb_tree_nodeIS2_E(ptr noundef %.0.val)
  %3 = getelementptr i8, ptr %.02, i64 16
  %.0.val6 = load ptr, ptr %3, align 8
  tail call void @_ZdlPv(ptr noundef nonnull %.02) #21
  %.not = icmp eq ptr %.0.val6, null
  br i1 %.not, label %._crit_edge, label %.lr.ph, !llvm.loop !22

._crit_edge:                                      ; preds = %.lr.ph, %1
  ret void
}